target datalayout = "e-m:e-p270:32:32-p271:32:32-p272:64:64-i64:64-i128:128-f80:128-n8:16:32:64-S128"
target triple = "x86_64-pc-linux-gnu"

; Function Attrs: nounwind null_pointer_is_valid sspstrong uwtable
define internal i32 @GSM_to_UNICHAR(i8 noundef zeroext %0) #4 {
  %2 = alloca i32, align 4
  %3 = alloca i8, align 1
  store i8 %0, ptr %3, align 1
  %4 = load i8, ptr %3, align 1
  %5 = zext i8 %4 to i64
  %6 = icmp ult i64 %5, 128
  br i1 %6, label %7, label %13

7:                                                ; preds = %1
  %8 = load i8, ptr %3, align 1
  %9 = zext i8 %8 to i64
  %10 = getelementptr [128 x i16], ptr @gsm_default_alphabet, i64 0, i64 %9
  %11 = load i16, ptr %10, align 2
  %12 = zext i16 %11 to i32
  store i32 %12, ptr %2, align 4
  br label %14

13:                                               ; preds = %1
  store i32 65533, ptr %2, align 4
  br label %14

14:                                               ; preds = %13, %7
  %15 = load i32, ptr %2, align 4
  ret i32 %15
}

; Function Attrs: nounwind null_pointer_is_valid sspstrong uwtable
define internal i32 @GSMext_to_UNICHAR(i8 noundef zeroext %0) #4 {
  %2 = alloca i32, align 4
  %3 = alloca i8, align 1
  store i8 %0, ptr %3, align 1
  %4 = load i8, ptr %3, align 1
  %5 = zext i8 %4 to i32
  switch i32 %5, label %16 [
    i32 10, label %6
    i32 20, label %7
    i32 40, label %8
    i32 41, label %9
    i32 47, label %10
    i32 60, label %11
    i32 61, label %12
    i32 62, label %13
    i32 64, label %14
    i32 101, label %15
  ]

6:                                                ; preds = %1
  store i32 12, ptr %2, align 4
  br label %17

7:                                                ; preds = %1
  store i32 94, ptr %2, align 4
  br label %17

8:                                                ; preds = %1
  store i32 123, ptr %2, align 4
  br label %17

9:                                                ; preds = %1
  store i32 125, ptr %2, align 4
  br label %17

10:                                               ; preds = %1
  store i32 92, ptr %2, align 4
  br label %17

11:                                               ; preds = %1
  store i32 91, ptr %2, align 4
  br label %17

12:                                               ; preds = %1
  store i32 126, ptr %2, align 4
  br label %17

13:                                               ; preds = %1
  store i32 93, ptr %2, align 4
  br label %17

14:                                               ; preds = %1
  store i32 124, ptr %2, align 4
  br label %17

15:                                               ; preds = %1
  store i32 8364, ptr %2, align 4
  br label %17

16:                                               ; preds = %1
  store i32 65533, ptr %2, align 4
  br label %17

17:                                               ; preds = %16, %15, %14, %13, %12, %11, %10, %9, %8, %7, %6
  %18 = load i32, ptr %2, align 4
  ret i32 %18
}

; Function Attrs: nounwind null_pointer_is_valid sspstrong uwtable
define internal zeroext i1 @char_is_escape(i8 noundef zeroext %0) #4 {
  %2 = alloca i8, align 1
  store i8 %0, ptr %2, align 1
  %3 = load i8, ptr %2, align 1
  %4 = zext i8 %3 to i32
  %5 = icmp eq i32 %4, 27
  ret i1 %5
}

; Function Attrs: null_pointer_is_valid sspstrong uwtable
define internal zeroext i1 @handle_ts_23_038_char(ptr noundef %0, i8 noundef zeroext %1, i1 noundef zeroext %2) #0 {
  %4 = alloca ptr, align 8
  %5 = alloca i8, align 1
  %6 = alloca i8, align 1
  %7 = alloca i32, align 4
  store ptr %0, ptr %4, align 8
  store i8 %1, ptr %5, align 1
  %8 = zext i1 %2 to i8
  store i8 %8, ptr %6, align 1
  call void @llvm.lifetime.start.p0(i64 4, ptr %7) #8
  %9 = load i8, ptr %5, align 1
  %10 = call zeroext i1 @char_is_escape(i8 noundef zeroext %9)
  br i1 %10, label %11, label %12

11:                                               ; preds = %3
  store i8 1, ptr %6, align 1
  br label %32

12:                                               ; preds = %3
  %13 = load i8, ptr %5, align 1
  %14 = zext i8 %13 to i32
  %15 = and i32 %14, 128
  %16 = icmp ne i32 %15, 0
  br i1 %16, label %29, label %17

17:                                               ; preds = %12
  %18 = load i8, ptr %6, align 1, !range !14, !noundef !15
  %19 = trunc i8 %18 to i1
  br i1 %19, label %20, label %23

20:                                               ; preds = %17
  store i8 0, ptr %6, align 1
  %21 = load i8, ptr %5, align 1
  %22 = call i32 @GSMext_to_UNICHAR(i8 noundef zeroext %21)
  store i32 %22, ptr %7, align 4
  br label %26

23:                                               ; preds = %17
  %24 = load i8, ptr %5, align 1
  %25 = call i32 @GSM_to_UNICHAR(i8 noundef zeroext %24)
  store i32 %25, ptr %7, align 4
  br label %26

26:                                               ; preds = %23, %20
  %27 = load ptr, ptr %4, align 8
  %28 = load i32, ptr %7, align 4
  call void @wmem_strbuf_append_unichar(ptr noundef %27, i32 noundef %28)
  br label %31

29:                                               ; preds = %12
  %30 = load ptr, ptr %4, align 8
  call void @wmem_strbuf_append_unichar(ptr noundef %30, i32 noundef 65533)
  br label %31

31:                                               ; preds = %29, %26
  br label %32

32:                                               ; preds = %31, %11
  %33 = load i8, ptr %6, align 1, !range !14, !noundef !15
  %34 = trunc i8 %33 to i1
  call void @llvm.lifetime.end.p0(i64 4, ptr %7) #8
  ret i1 %34
}