; Function Attrs: null_pointer_is_valid sspstrong uwtable
define internal fastcc noundef zeroext i1 @handle_ts_23_038_char(ptr noundef %0, i8 noundef zeroext %1, i1 noundef zeroext %2) unnamed_addr #0 {
  %4 = icmp eq i8 %1, 27
  br i1 %4, label %22, label %5

5:                                                ; preds = %3
  %.not = icmp sgt i8 %1, -1
  br i1 %.not, label %6, label %.sink.split

6:                                                ; preds = %5
  br i1 %2, label %7, label %GSM_to_UNICHAR.exit

7:                                                ; preds = %6
  switch i8 %1, label %17 [
    i8 10, label %.sink.split
    i8 20, label %8
    i8 40, label %9
    i8 41, label %10
    i8 47, label %11
    i8 60, label %12
    i8 61, label %13
    i8 62, label %14
    i8 64, label %15
    i8 101, label %16
  ]

8:                                                ; preds = %7
  br label %.sink.split

9:                                                ; preds = %7
  br label %.sink.split

10:                                               ; preds = %7
  br label %.sink.split

11:                                               ; preds = %7
  br label %.sink.split

12:                                               ; preds = %7
  br label %.sink.split

13:                                               ; preds = %7
  br label %.sink.split

14:                                               ; preds = %7
  br label %.sink.split

15:                                               ; preds = %7
  br label %.sink.split

16:                                               ; preds = %7
  br label %.sink.split

17:                                               ; preds = %7
  br label %.sink.split

GSM_to_UNICHAR.exit:                              ; preds = %6
  %18 = zext nneg i8 %1 to i64
  %19 = getelementptr [128 x i16], ptr @gsm_default_alphabet, i64 0, i64 %18
  %20 = load i16, ptr %19, align 2
  %21 = zext i16 %20 to i32
  br label %.sink.split

.sink.split:                                      ; preds = %5, %GSM_to_UNICHAR.exit, %7, %8, %9, %10, %11, %12, %13, %14, %15, %16, %17
  %.0.sink = phi i32 [ %21, %GSM_to_UNICHAR.exit ], [ 65533, %17 ], [ 8364, %16 ], [ 124, %15 ], [ 93, %14 ], [ 126, %13 ], [ 91, %12 ], [ 92, %11 ], [ 125, %10 ], [ 123, %9 ], [ 94, %8 ], [ 12, %7 ], [ 65533, %5 ]
  %.08.ph = phi i1 [ false, %GSM_to_UNICHAR.exit ], [ false, %17 ], [ false, %16 ], [ false, %15 ], [ false, %14 ], [ false, %13 ], [ false, %12 ], [ false, %11 ], [ false, %10 ], [ false, %9 ], [ false, %8 ], [ false, %7 ], [ %2, %5 ]
  tail call void @wmem_strbuf_append_unichar(ptr noundef %0, i32 noundef %.0.sink)
  br label %22

22:                                               ; preds = %.sink.split, %3
  %.08 = phi i1 [ true, %3 ], [ %.08.ph, %.sink.split ]
  ret i1 %.08
}